target datalayout = "e-m:e-p270:32:32-p271:32:32-p272:64:64-i64:64-i128:128-f80:128-n8:16:32:64-S128"
target triple = "x86_64-pc-linux-gnu"

%class.JNIHandleBlock = type { [32 x i64], i32, i32, ptr, ptr, ptr, ptr }

; Function Attrs: mustprogress nounwind uwtable
define internal noundef i64 @_ZL13tag_free_listm(i64 noundef %0) #1 {
  %2 = alloca i64, align 8
  store i64 %0, ptr %2, align 8
  %3 = load i64, ptr %2, align 8
  %4 = or i64 %3, 1
  ret i64 %4
}

; Function Attrs: mustprogress nounwind uwtable
define hidden void @_ZN14JNIHandleBlock17rebuild_free_listEv(ptr noundef nonnull align 8 dereferenceable(296) %0) #1 align 2 {
  %2 = alloca ptr, align 8
  %3 = alloca i32, align 4
  %4 = alloca i32, align 4
  %5 = alloca ptr, align 8
  %6 = alloca i32, align 4
  %7 = alloca ptr, align 8
  %8 = alloca i32, align 4
  %9 = alloca i32, align 4
  store ptr %0, ptr %2, align 8
  %10 = load ptr, ptr %2, align 8
  store i32 0, ptr %3, align 4
  store i32 0, ptr %4, align 4
  store ptr %10, ptr %5, align 8
  br label %11

11:                                               ; preds = %54, %1
  %12 = load ptr, ptr %5, align 8
  %13 = icmp ne ptr %12, null
  br i1 %13, label %14, label %58

14:                                               ; preds = %11
  store i32 0, ptr %6, align 4
  br label %15

15:                                               ; preds = %48, %14
  %16 = load i32, ptr %6, align 4
  %17 = load ptr, ptr %5, align 8
  %18 = getelementptr inbounds %class.JNIHandleBlock, ptr %17, i32 0, i32 1
  %19 = load i32, ptr %18, align 8
  %20 = icmp slt i32 %16, %19
  br i1 %20, label %21, label %51

21:                                               ; preds = %15
  %22 = load ptr, ptr %5, align 8
  %23 = getelementptr inbounds %class.JNIHandleBlock, ptr %22, i32 0, i32 0
  %24 = load i32, ptr %6, align 4
  %25 = sext i32 %24 to i64
  %26 = getelementptr inbounds [32 x i64], ptr %23, i64 0, i64 %25
  store ptr %26, ptr %7, align 8
  %27 = load ptr, ptr %7, align 8
  %28 = load i64, ptr %27, align 8
  %29 = icmp eq i64 %28, 0
  br i1 %29, label %30, label %47

30:                                               ; preds = %21
  %31 = getelementptr inbounds %class.JNIHandleBlock, ptr %10, i32 0, i32 6
  %32 = load ptr, ptr %31, align 8
  %33 = icmp eq ptr %32, null
  br i1 %33, label %34, label %35

34:                                               ; preds = %30
  br label %40

35:                                               ; preds = %30
  %36 = getelementptr inbounds %class.JNIHandleBlock, ptr %10, i32 0, i32 6
  %37 = load ptr, ptr %36, align 8
  %38 = ptrtoint ptr %37 to i64
  %39 = call noundef i64 @_ZL13tag_free_listm(i64 noundef %38)
  br label %40

40:                                               ; preds = %35, %34
  %41 = phi i64 [ 0, %34 ], [ %39, %35 ]
  %42 = load ptr, ptr %7, align 8
  store i64 %41, ptr %42, align 8
  %43 = load ptr, ptr %7, align 8
  %44 = getelementptr inbounds %class.JNIHandleBlock, ptr %10, i32 0, i32 6
  store ptr %43, ptr %44, align 8
  %45 = load i32, ptr %3, align 4
  %46 = add nsw i32 %45, 1
  store i32 %46, ptr %3, align 4
  br label %47

47:                                               ; preds = %40, %21
  br label %48

48:                                               ; preds = %47
  %49 = load i32, ptr %6, align 4
  %50 = add nsw i32 %49, 1
  store i32 %50, ptr %6, align 4
  br label %15, !llvm.loop !15

51:                                               ; preds = %15
  %52 = load i32, ptr %4, align 4
  %53 = add nsw i32 %52, 1
  store i32 %53, ptr %4, align 4
  br label %54

54:                                               ; preds = %51
  %55 = load ptr, ptr %5, align 8
  %56 = getelementptr inbounds %class.JNIHandleBlock, ptr %55, i32 0, i32 3
  %57 = load ptr, ptr %56, align 8
  store ptr %57, ptr %5, align 8
  br label %11, !llvm.loop !16

58:                                               ; preds = %11
  %59 = load i32, ptr %4, align 4
  %60 = mul nsw i32 %59, 32
  store i32 %60, ptr %8, align 4
  %61 = load i32, ptr %8, align 4
  %62 = load i32, ptr %3, align 4
  %63 = mul nsw i32 2, %62
  %64 = sub nsw i32 %61, %63
  store i32 %64, ptr %9, align 4
  %65 = load i32, ptr %9, align 4
  %66 = icmp sgt i32 %65, 0
  br i1 %66, label %67, label %73

67:                                               ; preds = %58
  %68 = load i32, ptr %9, align 4
  %69 = add nsw i32 %68, 32
  %70 = sub nsw i32 %69, 1
  %71 = sdiv i32 %70, 32
  %72 = getelementptr inbounds %class.JNIHandleBlock, ptr %10, i32 0, i32 2
  store i32 %71, ptr %72, align 4
  br label %73

73:                                               ; preds = %67, %58
  ret void
}