; Function Attrs: mustprogress nofree norecurse nosync nounwind memory(readwrite, inaccessiblemem: none) uwtable
define hidden void @_ZN14JNIHandleBlock17rebuild_free_listEv(ptr noundef nonnull align 8 dereferenceable(296) %0) local_unnamed_addr #7 align 2 {
  %2 = getelementptr inbounds i8, ptr %0, i64 288
  br label %.preheader

.preheader:                                       ; preds = %1, %._crit_edge
  %.026 = phi i32 [ 0, %1 ], [ %.1.lcssa, %._crit_edge ]
  %.01725 = phi i32 [ 0, %1 ], [ %21, %._crit_edge ]
  %.01824 = phi ptr [ %0, %1 ], [ %23, %._crit_edge ]
  %3 = getelementptr inbounds i8, ptr %.01824, i64 256
  %4 = load i32, ptr %3, align 8
  %5 = icmp sgt i32 %4, 0
  br i1 %5, label %.lr.ph, label %._crit_edge

.lr.ph:                                           ; preds = %.preheader, %17
  %6 = phi i32 [ %18, %17 ], [ %4, %.preheader ]
  %indvars.iv = phi i64 [ %indvars.iv.next, %17 ], [ 0, %.preheader ]
  %.123 = phi i32 [ %.2, %17 ], [ %.026, %.preheader ]
  %7 = getelementptr inbounds [32 x i64], ptr %.01824, i64 0, i64 %indvars.iv
  %8 = load i64, ptr %7, align 8
  %9 = icmp eq i64 %8, 0
  br i1 %9, label %10, label %17

10:                                               ; preds = %.lr.ph
  %11 = load ptr, ptr %2, align 8
  %12 = icmp eq ptr %11, null
  %13 = ptrtoint ptr %11 to i64
  %14 = or i64 %13, 1
  %15 = select i1 %12, i64 0, i64 %14
  store i64 %15, ptr %7, align 8
  store ptr %7, ptr %2, align 8
  %16 = add nsw i32 %.123, 1
  %.pre = load i32, ptr %3, align 8
  br label %17

17:                                               ; preds = %.lr.ph, %10
  %18 = phi i32 [ %.pre, %10 ], [ %6, %.lr.ph ]
  %.2 = phi i32 [ %16, %10 ], [ %.123, %.lr.ph ]
  %indvars.iv.next = add nuw nsw i64 %indvars.iv, 1
  %19 = sext i32 %18 to i64
  %20 = icmp slt i64 %indvars.iv.next, %19
  br i1 %20, label %.lr.ph, label %._crit_edge, !llvm.loop !8

._crit_edge:                                      ; preds = %17, %.preheader
  %.1.lcssa = phi i32 [ %.026, %.preheader ], [ %.2, %17 ]
  %21 = add nuw nsw i32 %.01725, 1
  %22 = getelementptr inbounds i8, ptr %.01824, i64 264
  %23 = load ptr, ptr %22, align 8
  %.not = icmp eq ptr %23, null
  br i1 %.not, label %24, label %.preheader, !llvm.loop !9

24:                                               ; preds = %._crit_edge
  %25 = shl nsw i32 %21, 5
  %26 = shl nsw i32 %.1.lcssa, 1
  %27 = sub nsw i32 %25, %26
  %28 = icmp sgt i32 %27, 0
  br i1 %28, label %29, label %33

29:                                               ; preds = %24
  %30 = add nuw nsw i32 %27, 31
  %31 = lshr i32 %30, 5
  %32 = getelementptr inbounds i8, ptr %0, i64 260
  store i32 %31, ptr %32, align 4
  br label %33

33:                                               ; preds = %29, %24
  ret void
}